; ModuleID = '44/850.c'
source_filename = "44/850.c"
target datalayout = "e-m:e-p270:32:32-p271:32:32-p272:64:64-i64:64-f80:128-n8:16:32:64-S128"
target triple = "x86_64-pc-linux-gnu"

@.str = private unnamed_addr constant [3 x i8] c"%s\00", align 1
@.str.1 = private unnamed_addr constant [2 x i8] c"0\00", align 1
@.str.2 = private unnamed_addr constant [3 x i8] c"-0\00", align 1
@.str.3 = private unnamed_addr constant [3 x i8] c"0\0A\00", align 1
@.str.4 = private unnamed_addr constant [2 x i8] c"-\00", align 1
@.str.5 = private unnamed_addr constant [3 x i8] c"%c\00", align 1
@.str.6 = private unnamed_addr constant [2 x i8] c"\0A\00", align 1

; Function Attrs: noinline nounwind uwtable
define dso_local i32 @main() #0 {
  %1 = alloca i32, align 4
  %2 = alloca [6 x [10 x i8]], align 16
  %3 = alloca i32, align 4
  %4 = alloca i32, align 4
  %5 = alloca i32, align 4
  store i32 0, i32* %1, align 4
  %6 = bitcast [6 x [10 x i8]]* %2 to i8*
  call void @llvm.memset.p0i8.i64(i8* align 16 %6, i8 0, i64 60, i1 false)
  store i32 0, i32* %3, align 4
  br label %7

7:                                                ; preds = %16, %0
  %8 = load i32, i32* %3, align 4
  %9 = icmp slt i32 %8, 6
  br i1 %9, label %10, label %19

10:                                               ; preds = %7
  %11 = load i32, i32* %3, align 4
  %12 = sext i32 %11 to i64
  %13 = getelementptr inbounds [6 x [10 x i8]], [6 x [10 x i8]]* %2, i64 0, i64 %12
  %14 = getelementptr inbounds [10 x i8], [10 x i8]* %13, i64 0, i64 0
  %15 = call i32 (i8*, ...) @__isoc99_scanf(i8* getelementptr inbounds ([3 x i8], [3 x i8]* @.str, i64 0, i64 0), i8* %14)
  br label %16

16:                                               ; preds = %10
  %17 = load i32, i32* %3, align 4
  %18 = add nsw i32 %17, 1
  store i32 %18, i32* %3, align 4
  br label %7

19:                                               ; preds = %7
  store i32 0, i32* %4, align 4
  br label %20

20:                                               ; preds = %168, %19
  %21 = load i32, i32* %4, align 4
  %22 = icmp slt i32 %21, 6
  br i1 %22, label %23, label %171

23:                                               ; preds = %20
  %24 = load i32, i32* %4, align 4
  %25 = sext i32 %24 to i64
  %26 = getelementptr inbounds [6 x [10 x i8]], [6 x [10 x i8]]* %2, i64 0, i64 %25
  %27 = getelementptr inbounds [10 x i8], [10 x i8]* %26, i64 0, i64 0
  %28 = call i32 @strcmp(i8* %27, i8* getelementptr inbounds ([2 x i8], [2 x i8]* @.str.1, i64 0, i64 0)) #4
  %29 = icmp eq i32 %28, 0
  br i1 %29, label %37, label %30

30:                                               ; preds = %23
  %31 = load i32, i32* %4, align 4
  %32 = sext i32 %31 to i64
  %33 = getelementptr inbounds [6 x [10 x i8]], [6 x [10 x i8]]* %2, i64 0, i64 %32
  %34 = getelementptr inbounds [10 x i8], [10 x i8]* %33, i64 0, i64 0
  %35 = call i32 @strcmp(i8* %34, i8* getelementptr inbounds ([3 x i8], [3 x i8]* @.str.2, i64 0, i64 0)) #4
  %36 = icmp eq i32 %35, 0
  br i1 %36, label %37, label %39

37:                                               ; preds = %30, %23
  %38 = call i32 (i8*, ...) @printf(i8* getelementptr inbounds ([3 x i8], [3 x i8]* @.str.3, i64 0, i64 0))
  br label %167

39:                                               ; preds = %30
  %40 = load i32, i32* %4, align 4
  %41 = sext i32 %40 to i64
  %42 = getelementptr inbounds [6 x [10 x i8]], [6 x [10 x i8]]* %2, i64 0, i64 %41
  %43 = getelementptr inbounds [10 x i8], [10 x i8]* %42, i64 0, i64 0
  %44 = load i8, i8* %43, align 2
  %45 = sext i8 %44 to i32
  %46 = icmp eq i32 %45, 45
  br i1 %46, label %47, label %107

47:                                               ; preds = %39
  %48 = call i32 (i8*, ...) @printf(i8* getelementptr inbounds ([2 x i8], [2 x i8]* @.str.4, i64 0, i64 0))
  store i32 9, i32* %3, align 4
  br label %49

49:                                               ; preds = %83, %47
  %50 = load i32, i32* %3, align 4
  %51 = icmp sgt i32 %50, 0
  br i1 %51, label %52, label %86

52:                                               ; preds = %49
  %53 = load i32, i32* %4, align 4
  %54 = sext i32 %53 to i64
  %55 = getelementptr inbounds [6 x [10 x i8]], [6 x [10 x i8]]* %2, i64 0, i64 %54
  %56 = load i32, i32* %3, align 4
  %57 = sext i32 %56 to i64
  %58 = getelementptr inbounds [10 x i8], [10 x i8]* %55, i64 0, i64 %57
  %59 = load i8, i8* %58, align 1
  %60 = sext i8 %59 to i32
  %61 = icmp ne i32 %60, 48
  br i1 %61, label %62, label %82

62:                                               ; preds = %52
  %63 = load i32, i32* %4, align 4
  %64 = sext i32 %63 to i64
  %65 = getelementptr inbounds [6 x [10 x i8]], [6 x [10 x i8]]* %2, i64 0, i64 %64
  %66 = load i32, i32* %3, align 4
  %67 = sext i32 %66 to i64
  %68 = getelementptr inbounds [10 x i8], [10 x i8]* %65, i64 0, i64 %67
  %69 = load i8, i8* %68, align 1
  %70 = sext i8 %69 to i32
  %71 = icmp ne i32 %70, 0
  br i1 %71, label %72, label %82

72:                                               ; preds = %62
  %73 = load i32, i32* %4, align 4
  %74 = sext i32 %73 to i64
  %75 = getelementptr inbounds [6 x [10 x i8]], [6 x [10 x i8]]* %2, i64 0, i64 %74
  %76 = load i32, i32* %3, align 4
  %77 = sext i32 %76 to i64
  %78 = getelementptr inbounds [10 x i8], [10 x i8]* %75, i64 0, i64 %77
  %79 = load i8, i8* %78, align 1
  %80 = sext i8 %79 to i32
  %81 = call i32 (i8*, ...) @printf(i8* getelementptr inbounds ([3 x i8], [3 x i8]* @.str.5, i64 0, i64 0), i32 %80)
  br label %86

82:                                               ; preds = %62, %52
  br label %83

83:                                               ; preds = %82
  %84 = load i32, i32* %3, align 4
  %85 = add nsw i32 %84, -1
  store i32 %85, i32* %3, align 4
  br label %49

86:                                               ; preds = %72, %49
  %87 = load i32, i32* %3, align 4
  %88 = sub nsw i32 %87, 1
  store i32 %88, i32* %5, align 4
  br label %89

89:                                               ; preds = %102, %86
  %90 = load i32, i32* %5, align 4
  %91 = icmp sgt i32 %90, 0
  br i1 %91, label %92, label %105

92:                                               ; preds = %89
  %93 = load i32, i32* %4, align 4
  %94 = sext i32 %93 to i64
  %95 = getelementptr inbounds [6 x [10 x i8]], [6 x [10 x i8]]* %2, i64 0, i64 %94
  %96 = load i32, i32* %5, align 4
  %97 = sext i32 %96 to i64
  %98 = getelementptr inbounds [10 x i8], [10 x i8]* %95, i64 0, i64 %97
  %99 = load i8, i8* %98, align 1
  %100 = sext i8 %99 to i32
  %101 = call i32 (i8*, ...) @printf(i8* getelementptr inbounds ([3 x i8], [3 x i8]* @.str.5, i64 0, i64 0), i32 %100)
  br label %102

102:                                              ; preds = %92
  %103 = load i32, i32* %5, align 4
  %104 = add nsw i32 %103, -1
  store i32 %104, i32* %5, align 4
  br label %89

105:                                              ; preds = %89
  %106 = call i32 (i8*, ...) @printf(i8* getelementptr inbounds ([2 x i8], [2 x i8]* @.str.6, i64 0, i64 0))
  br label %166

107:                                              ; preds = %39
  store i32 9, i32* %3, align 4
  br label %108

108:                                              ; preds = %142, %107
  %109 = load i32, i32* %3, align 4
  %110 = icmp sge i32 %109, 0
  br i1 %110, label %111, label %145

111:                                              ; preds = %108
  %112 = load i32, i32* %4, align 4
  %113 = sext i32 %112 to i64
  %114 = getelementptr inbounds [6 x [10 x i8]], [6 x [10 x i8]]* %2, i64 0, i64 %113
  %115 = load i32, i32* %3, align 4
  %116 = sext i32 %115 to i64
  %117 = getelementptr inbounds [10 x i8], [10 x i8]* %114, i64 0, i64 %116
  %118 = load i8, i8* %117, align 1
  %119 = sext i8 %118 to i32
  %120 = icmp ne i32 %119, 48
  br i1 %120, label %121, label %141

121:                                              ; preds = %111
  %122 = load i32, i32* %4, align 4
  %123 = sext i32 %122 to i64
  %124 = getelementptr inbounds [6 x [10 x i8]], [6 x [10 x i8]]* %2, i64 0, i64 %123
  %125 = load i32, i32* %3, align 4
  %126 = sext i32 %125 to i64
  %127 = getelementptr inbounds [10 x i8], [10 x i8]* %124, i64 0, i64 %126
  %128 = load i8, i8* %127, align 1
  %129 = sext i8 %128 to i32
  %130 = icmp ne i32 %129, 0
  br i1 %130, label %131, label %141

131:                                              ; preds = %121
  %132 = load i32, i32* %4, align 4
  %133 = sext i32 %132 to i64
  %134 = getelementptr inbounds [6 x [10 x i8]], [6 x [10 x i8]]* %2, i64 0, i64 %133
  %135 = load i32, i32* %3, align 4
  %136 = sext i32 %135 to i64
  %137 = getelementptr inbounds [10 x i8], [10 x i8]* %134, i64 0, i64 %136
  %138 = load i8, i8* %137, align 1
  %139 = sext i8 %138 to i32
  %140 = call i32 (i8*, ...) @printf(i8* getelementptr inbounds ([3 x i8], [3 x i8]* @.str.5, i64 0, i64 0), i32 %139)
  br label %145

141:                                              ; preds = %121, %111
  br label %142

142:                                              ; preds = %141
  %143 = load i32, i32* %3, align 4
  %144 = add nsw i32 %143, -1
  store i32 %144, i32* %3, align 4
  br label %108

145:                                              ; preds = %131, %108
  %146 = load i32, i32* %3, align 4
  %147 = sub nsw i32 %146, 1
  store i32 %147, i32* %5, align 4
  br label %148

148:                                              ; preds = %161, %145
  %149 = load i32, i32* %5, align 4
  %150 = icmp sge i32 %149, 0
  br i1 %150, label %151, label %164

151:                                              ; preds = %148
  %152 = load i32, i32* %4, align 4
  %153 = sext i32 %152 to i64
  %154 = getelementptr inbounds [6 x [10 x i8]], [6 x [10 x i8]]* %2, i64 0, i64 %153
  %155 = load i32, i32* %5, align 4
  %156 = sext i32 %155 to i64
  %157 = getelementptr inbounds [10 x i8], [10 x i8]* %154, i64 0, i64 %156
  %158 = load i8, i8* %157, align 1
  %159 = sext i8 %158 to i32
  %160 = call i32 (i8*, ...) @printf(i8* getelementptr inbounds ([3 x i8], [3 x i8]* @.str.5, i64 0, i64 0), i32 %159)
  br label %161

161:                                              ; preds = %151
  %162 = load i32, i32* %5, align 4
  %163 = add nsw i32 %162, -1
  store i32 %163, i32* %5, align 4
  br label %148

164:                                              ; preds = %148
  %165 = call i32 (i8*, ...) @printf(i8* getelementptr inbounds ([2 x i8], [2 x i8]* @.str.6, i64 0, i64 0))
  br label %166

166:                                              ; preds = %164, %105
  br label %167

167:                                              ; preds = %166, %37
  br label %168

168:                                              ; preds = %167
  %169 = load i32, i32* %4, align 4
  %170 = add nsw i32 %169, 1
  store i32 %170, i32* %4, align 4
  br label %20

171:                                              ; preds = %20
  ret i32 0
}

; Function Attrs: argmemonly nounwind willreturn
declare void @llvm.memset.p0i8.i64(i8* nocapture writeonly, i8, i64, i1 immarg) #1

declare dso_local i32 @__isoc99_scanf(i8*, ...) #2

; Function Attrs: nounwind readonly
declare dso_local i32 @strcmp(i8*, i8*) #3

declare dso_local i32 @printf(i8*, ...) #2


!llvm.module.flags = !{!0}
!llvm.ident = !{!1}

!0 = !{i32 1, !"wchar_size", i32 4}
!1 = !{!"clang version 10.0.0-4ubuntu1 "}
